; Function Attrs: nounwind sspstrong uwtable
define i64 @ossl_buf2str(ptr noundef %0, i32 noundef %1) local_unnamed_addr #0 {
  %3 = alloca i32, align 4
  %4 = sext i32 %1 to i64
  call void @llvm.lifetime.start.p0(i64 4, ptr nonnull %3) #15
  %5 = call i64 @rb_protect(ptr noundef nonnull @ossl_str_new_i, i64 noundef %4, ptr noundef nonnull %3) #15
  %.pr.i = load i32, ptr %3, align 4, !tbaa !17
  %.not1113.i = icmp eq i32 %.pr.i, 0
  br i1 %.not1113.i, label %6, label %13

6:                                                ; preds = %2
  %.not12.i = icmp eq ptr %0, null
  br i1 %.not12.i, label %14, label %7

7:                                                ; preds = %6
  %8 = inttoptr i64 %5 to ptr
  %9 = load i64, ptr %8, align 8, !tbaa !7, !noalias !26
  %10 = and i64 %9, 8192
  %.not.i.i.i = icmp eq i64 %10, 0
  %11 = getelementptr inbounds nuw i8, ptr %8, i64 24
  br i1 %.not.i.i.i, label %RSTRING_PTR.exit.i, label %12

12:                                               ; preds = %7
  %.sroa.2.0.copyload.i.i = load ptr, ptr %11, align 8
  br label %RSTRING_PTR.exit.i

RSTRING_PTR.exit.i:                               ; preds = %12, %7
  %.sroa.2.0.i.i = phi ptr [ %.sroa.2.0.copyload.i.i, %12 ], [ %11, %7 ]
  call void @llvm.memcpy.p0.p0.i64(ptr noundef nonnull align 1 %.sroa.2.0.i.i, ptr noundef nonnull readonly align 1 %0, i64 noundef %4, i1 noundef false) #15
  br label %14

13:                                               ; preds = %2
  call void @llvm.lifetime.end.p0(i64 4, ptr nonnull %3) #15
  call void @CRYPTO_free(ptr noundef %0, ptr noundef nonnull @.str.1, i32 noundef 118) #15
  call void @rb_jump_tag(i32 noundef %.pr.i) #18
  unreachable

14:                                               ; preds = %6, %RSTRING_PTR.exit.i
  call void @llvm.lifetime.end.p0(i64 4, ptr nonnull %3) #15
  call void @CRYPTO_free(ptr noundef %0, ptr noundef nonnull @.str.1, i32 noundef 118) #15
  ret i64 %5
}